target datalayout = "e-m:e-p270:32:32-p271:32:32-p272:64:64-i64:64-i128:128-f80:128-n8:16:32:64-S128"
target triple = "x86_64-pc-linux-gnu"

%struct.AVFilterContext = type { ptr, ptr, ptr, ptr, ptr, i32, ptr, ptr, i32, ptr, ptr, i32, i32, ptr, ptr, ptr, ptr, i32, ptr, i32, i32 }
%struct.HWMapContext = type { ptr, ptr, i32, ptr, i32 }
%struct.AVFilterFormatsConfig = type { ptr, ptr, ptr, ptr, ptr }
%struct.AVFilterLink = type { ptr, ptr, ptr, ptr, i32, i32, i32, i32, %struct.AVRational, i32, i32, i32, %struct.AVChannelLayout, %struct.AVRational, ptr, i32, %struct.AVFilterFormatsConfig, %struct.AVFilterFormatsConfig }
%struct.AVChannelLayout = type { i32, i32, %union.anon.1, ptr }
%union.anon.1 = type { i64 }
%struct.AVRational = type { i32, i32 }
%struct.FilterLink = type { %struct.AVFilterLink, ptr, i64, i64, i32, i32, i64, i64, i64, i64, %struct.AVRational, ptr }

@.str.3 = private unnamed_addr constant [55 x i8] c"Failed to allocate source frame for software mapping.\0A\00", align 1
@.str.4 = private unnamed_addr constant [38 x i8] c"Failed to map frame to software: %d.\0A\00", align 1

; Function Attrs: inlinehint nounwind uwtable
define internal ptr @ff_filter_link(ptr noundef %0) #3 {
  %2 = alloca ptr, align 8
  store ptr %0, ptr %2, align 8, !tbaa !29
  %3 = load ptr, ptr %2, align 8, !tbaa !29
  ret ptr %3
}

; Function Attrs: nounwind uwtable
define internal ptr @hwmap_get_buffer(ptr noundef %0, i32 noundef %1, i32 noundef %2) #1 {
  %4 = alloca ptr, align 8
  %5 = alloca ptr, align 8
  %6 = alloca i32, align 4
  %7 = alloca i32, align 4
  %8 = alloca ptr, align 8
  %9 = alloca ptr, align 8
  %10 = alloca ptr, align 8
  %11 = alloca ptr, align 8
  %12 = alloca ptr, align 8
  %13 = alloca ptr, align 8
  %14 = alloca i32, align 4
  %15 = alloca i32, align 4
  store ptr %0, ptr %5, align 8, !tbaa !29
  store i32 %1, ptr %6, align 4, !tbaa !28
  store i32 %2, ptr %7, align 4, !tbaa !28
  call void @llvm.lifetime.start.p0(i64 8, ptr %8) #5
  %16 = load ptr, ptr %5, align 8, !tbaa !29
  %17 = call ptr @ff_filter_link(ptr noundef %16)
  store ptr %17, ptr %8, align 8, !tbaa !31
  call void @llvm.lifetime.start.p0(i64 8, ptr %9) #5
  %18 = load ptr, ptr %5, align 8, !tbaa !29
  %19 = getelementptr inbounds nuw %struct.AVFilterLink, ptr %18, i32 0, i32 2
  %20 = load ptr, ptr %19, align 8, !tbaa !33
  store ptr %20, ptr %9, align 8, !tbaa !4
  call void @llvm.lifetime.start.p0(i64 8, ptr %10) #5
  %21 = load ptr, ptr %9, align 8, !tbaa !4
  %22 = getelementptr inbounds nuw %struct.AVFilterContext, ptr %21, i32 0, i32 7
  %23 = load ptr, ptr %22, align 8, !tbaa !41
  %24 = getelementptr inbounds ptr, ptr %23, i64 0
  %25 = load ptr, ptr %24, align 8, !tbaa !29
  store ptr %25, ptr %10, align 8, !tbaa !29
  call void @llvm.lifetime.start.p0(i64 8, ptr %11) #5
  %26 = load ptr, ptr %9, align 8, !tbaa !4
  %27 = getelementptr inbounds nuw %struct.AVFilterContext, ptr %26, i32 0, i32 9
  %28 = load ptr, ptr %27, align 8, !tbaa !9
  store ptr %28, ptr %11, align 8, !tbaa !22
  %29 = load ptr, ptr %11, align 8, !tbaa !22
  %30 = getelementptr inbounds nuw %struct.HWMapContext, ptr %29, i32 0, i32 4
  %31 = load i32, ptr %30, align 8, !tbaa !42
  %32 = icmp ne i32 %31, 0
  br i1 %32, label %33, label %67

33:                                               ; preds = %3
  %34 = load ptr, ptr %8, align 8, !tbaa !31
  %35 = getelementptr inbounds nuw %struct.FilterLink, ptr %34, i32 0, i32 11
  %36 = load ptr, ptr %35, align 8, !tbaa !44
  %37 = icmp ne ptr %36, null
  br i1 %37, label %67, label %38

38:                                               ; preds = %33
  call void @llvm.lifetime.start.p0(i64 8, ptr %12) #5
  call void @llvm.lifetime.start.p0(i64 8, ptr %13) #5
  call void @llvm.lifetime.start.p0(i64 4, ptr %14) #5
  %39 = load ptr, ptr %10, align 8, !tbaa !29
  %40 = load i32, ptr %6, align 4, !tbaa !28
  %41 = load i32, ptr %7, align 4, !tbaa !28
  %42 = call ptr @ff_get_video_buffer(ptr noundef %39, i32 noundef %40, i32 noundef %41)
  store ptr %42, ptr %12, align 8, !tbaa !47
  %43 = load ptr, ptr %12, align 8, !tbaa !47
  %44 = icmp ne ptr %43, null
  br i1 %44, label %47, label %45

45:                                               ; preds = %38
  %46 = load ptr, ptr %9, align 8, !tbaa !4
  call void (ptr, i32, ptr, ...) @av_log(ptr noundef %46, i32 noundef 16, ptr noundef @.str.3)
  store ptr null, ptr %4, align 8
  store i32 1, ptr %15, align 4
  br label %66

47:                                               ; preds = %38
  %48 = call ptr @av_frame_alloc()
  store ptr %48, ptr %13, align 8, !tbaa !47
  %49 = load ptr, ptr %13, align 8, !tbaa !47
  %50 = icmp ne ptr %49, null
  br i1 %50, label %52, label %51

51:                                               ; preds = %47
  call void @av_frame_free(ptr noundef %12)
  store ptr null, ptr %4, align 8
  store i32 1, ptr %15, align 4
  br label %66

52:                                               ; preds = %47
  %53 = load ptr, ptr %13, align 8, !tbaa !47
  %54 = load ptr, ptr %12, align 8, !tbaa !47
  %55 = load ptr, ptr %11, align 8, !tbaa !22
  %56 = getelementptr inbounds nuw %struct.HWMapContext, ptr %55, i32 0, i32 2
  %57 = load i32, ptr %56, align 8, !tbaa !49
  %58 = call i32 @av_hwframe_map(ptr noundef %53, ptr noundef %54, i32 noundef %57)
  store i32 %58, ptr %14, align 4, !tbaa !28
  %59 = load i32, ptr %14, align 4, !tbaa !28
  %60 = icmp ne i32 %59, 0
  br i1 %60, label %61, label %64

61:                                               ; preds = %52
  %62 = load ptr, ptr %9, align 8, !tbaa !4
  %63 = load i32, ptr %14, align 4, !tbaa !28
  call void (ptr, i32, ptr, ...) @av_log(ptr noundef %62, i32 noundef 16, ptr noundef @.str.4, i32 noundef %63)
  call void @av_frame_free(ptr noundef %12)
  call void @av_frame_free(ptr noundef %13)
  store ptr null, ptr %4, align 8
  store i32 1, ptr %15, align 4
  br label %66

64:                                               ; preds = %52
  call void @av_frame_free(ptr noundef %12)
  %65 = load ptr, ptr %13, align 8, !tbaa !47
  store ptr %65, ptr %4, align 8
  store i32 1, ptr %15, align 4
  br label %66

66:                                               ; preds = %64, %61, %51, %45
  call void @llvm.lifetime.end.p0(i64 4, ptr %14) #5
  call void @llvm.lifetime.end.p0(i64 8, ptr %13) #5
  call void @llvm.lifetime.end.p0(i64 8, ptr %12) #5
  br label %72

67:                                               ; preds = %33, %3
  %68 = load ptr, ptr %5, align 8, !tbaa !29
  %69 = load i32, ptr %6, align 4, !tbaa !28
  %70 = load i32, ptr %7, align 4, !tbaa !28
  %71 = call ptr @ff_default_get_video_buffer(ptr noundef %68, i32 noundef %69, i32 noundef %70)
  store ptr %71, ptr %4, align 8
  store i32 1, ptr %15, align 4
  br label %72

72:                                               ; preds = %67, %66
  call void @llvm.lifetime.end.p0(i64 8, ptr %11) #5
  call void @llvm.lifetime.end.p0(i64 8, ptr %10) #5
  call void @llvm.lifetime.end.p0(i64 8, ptr %9) #5
  call void @llvm.lifetime.end.p0(i64 8, ptr %8) #5
  %73 = load ptr, ptr %4, align 8
  ret ptr %73
}