; Function Attrs: nounwind uwtable
define internal ptr @hwmap_get_buffer(ptr noundef %0, i32 noundef %1, i32 noundef %2) #1 {
  %4 = alloca ptr, align 8
  %5 = alloca ptr, align 8
  %6 = getelementptr inbounds nuw i8, ptr %0, i64 16
  %7 = load ptr, ptr %6, align 8, !tbaa !22
  %8 = getelementptr inbounds nuw i8, ptr %7, i64 56
  %9 = load ptr, ptr %8, align 8, !tbaa !31
  %10 = load ptr, ptr %9, align 8, !tbaa !32
  %11 = getelementptr inbounds nuw i8, ptr %7, i64 72
  %12 = load ptr, ptr %11, align 8, !tbaa !4
  %13 = getelementptr inbounds nuw i8, ptr %12, i64 32
  %14 = load i32, ptr %13, align 8, !tbaa !34
  %.not = icmp eq i32 %14, 0
  br i1 %.not, label %31, label %15

15:                                               ; preds = %3
  %16 = getelementptr inbounds nuw i8, ptr %0, i64 272
  %17 = load ptr, ptr %16, align 8, !tbaa !36
  %.not19 = icmp eq ptr %17, null
  br i1 %.not19, label %18, label %31

18:                                               ; preds = %15
  call void @llvm.lifetime.start.p0(i64 8, ptr nonnull %4) #5
  call void @llvm.lifetime.start.p0(i64 8, ptr nonnull %5) #5
  %19 = tail call ptr @ff_get_video_buffer(ptr noundef %10, i32 noundef %1, i32 noundef %2) #5
  store ptr %19, ptr %4, align 8, !tbaa !39
  %.not20 = icmp eq ptr %19, null
  br i1 %.not20, label %20, label %21

20:                                               ; preds = %18
  tail call void (ptr, i32, ptr, ...) @av_log(ptr noundef nonnull %7, i32 noundef 16, ptr noundef nonnull @.str.3) #5
  br label %30

21:                                               ; preds = %18
  %22 = tail call ptr @av_frame_alloc() #5
  store ptr %22, ptr %5, align 8, !tbaa !39
  %.not21 = icmp eq ptr %22, null
  br i1 %.not21, label %23, label %24

23:                                               ; preds = %21
  call void @av_frame_free(ptr noundef nonnull %4) #5
  br label %30

24:                                               ; preds = %21
  %25 = getelementptr inbounds nuw i8, ptr %12, i64 16
  %26 = load i32, ptr %25, align 8, !tbaa !41
  %27 = tail call i32 @av_hwframe_map(ptr noundef nonnull %22, ptr noundef nonnull %19, i32 noundef %26) #5
  %.not22 = icmp eq i32 %27, 0
  br i1 %.not22, label %29, label %28

28:                                               ; preds = %24
  tail call void (ptr, i32, ptr, ...) @av_log(ptr noundef nonnull %7, i32 noundef 16, ptr noundef nonnull @.str.4, i32 noundef %27) #5
  call void @av_frame_free(ptr noundef nonnull %4) #5
  call void @av_frame_free(ptr noundef nonnull %5) #5
  br label %30

29:                                               ; preds = %24
  call void @av_frame_free(ptr noundef nonnull %4) #5
  br label %30

30:                                               ; preds = %29, %28, %23, %20
  %.0 = phi ptr [ null, %28 ], [ %22, %29 ], [ null, %23 ], [ null, %20 ]
  call void @llvm.lifetime.end.p0(i64 8, ptr nonnull %5) #5
  call void @llvm.lifetime.end.p0(i64 8, ptr nonnull %4) #5
  br label %33

31:                                               ; preds = %15, %3
  %32 = tail call ptr @ff_default_get_video_buffer(ptr noundef nonnull %0, i32 noundef %1, i32 noundef %2) #5
  br label %33

33:                                               ; preds = %31, %30
  %.1 = phi ptr [ %32, %31 ], [ %.0, %30 ]
  ret ptr %.1
}